target datalayout = "e-m:e-p270:32:32-p271:32:32-p272:64:64-i64:64-i128:128-f80:128-n8:16:32:64-S128"
target triple = "x86_64-pc-linux-gnu"

%struct._object = type { %union.anon, ptr }
%union.anon = type { i64 }
%struct.PyCompilerFlags = type { i32, i32 }
%struct._typeobject = type { %struct.PyVarObject, ptr, i64, i64, ptr, i64, ptr, ptr, ptr, ptr, ptr, ptr, ptr, ptr, ptr, ptr, ptr, ptr, ptr, i64, ptr, ptr, ptr, ptr, i64, ptr, ptr, ptr, ptr, ptr, ptr, ptr, ptr, ptr, i64, ptr, ptr, ptr, ptr, ptr, ptr, ptr, ptr, ptr, ptr, ptr, i32, ptr, ptr, i8, i16 }
%struct.PyVarObject = type { %struct._object, i64 }
%struct.symtable = type { ptr, ptr, ptr, ptr, ptr, ptr, i32, ptr, ptr, i32, i32 }
%struct.anon = type { i32, i32 }

@.str.1 = private unnamed_addr constant [9 x i8] c"symtable\00", align 1
@.str.3 = private unnamed_addr constant [11 x i8] c"argument 3\00", align 1
@.str.4 = private unnamed_addr constant [4 x i8] c"str\00", align 1
@PyExc_ValueError = external global ptr, align 8
@.str.5 = private unnamed_addr constant [24 x i8] c"embedded null character\00", align 1
@__const._symtable_symtable_impl.cf = private unnamed_addr constant %struct.PyCompilerFlags { i32 0, i32 14 }, align 4
@.str.6 = private unnamed_addr constant [16 x i8] c"string or bytes\00", align 1
@.str.7 = private unnamed_addr constant [5 x i8] c"exec\00", align 1
@.str.8 = private unnamed_addr constant [5 x i8] c"eval\00", align 1
@.str.9 = private unnamed_addr constant [7 x i8] c"single\00", align 1
@.str.10 = private unnamed_addr constant [54 x i8] c"symtable() arg 3 must be 'exec' or 'eval' or 'single'\00", align 1

; Function Attrs: alwaysinline nounwind uwtable
define internal void @Py_INCREF(ptr noundef %0) #6 {
  %2 = alloca ptr, align 8
  %3 = alloca i32, align 4
  %4 = alloca i32, align 4
  store ptr %0, ptr %2, align 8, !tbaa !4
  call void @llvm.lifetime.start.p0(i64 4, ptr %3) #7
  %5 = load ptr, ptr %2, align 8, !tbaa !4
  %6 = getelementptr inbounds nuw %struct._object, ptr %5, i32 0, i32 0
  %7 = getelementptr inbounds nuw %struct.anon, ptr %6, i32 0, i32 0
  %8 = load i32, ptr %7, align 8, !tbaa !35
  store i32 %8, ptr %3, align 4, !tbaa !29
  %9 = load i32, ptr %3, align 4, !tbaa !29
  %10 = icmp slt i32 %9, 0
  br i1 %10, label %11, label %12

11:                                               ; preds = %1
  store i32 1, ptr %4, align 4
  br label %18

12:                                               ; preds = %1
  %13 = load i32, ptr %3, align 4, !tbaa !29
  %14 = add i32 %13, 1
  %15 = load ptr, ptr %2, align 8, !tbaa !4
  %16 = getelementptr inbounds nuw %struct._object, ptr %15, i32 0, i32 0
  %17 = getelementptr inbounds nuw %struct.anon, ptr %16, i32 0, i32 0
  store i32 %14, ptr %17, align 8, !tbaa !35
  store i32 0, ptr %4, align 4
  br label %18

18:                                               ; preds = %12, %11
  call void @llvm.lifetime.end.p0(i64 4, ptr %3) #7
  %19 = load i32, ptr %4, align 4
  switch i32 %19, label %21 [
    i32 0, label %20
    i32 1, label %20
  ]

20:                                               ; preds = %18, %18
  ret void

21:                                               ; preds = %18
  unreachable
}

; Function Attrs: alwaysinline nounwind uwtable
define internal i32 @_Py_IsImmortal(ptr noundef %0) #6 {
  %2 = alloca ptr, align 8
  store ptr %0, ptr %2, align 8, !tbaa !4
  %3 = load ptr, ptr %2, align 8, !tbaa !4
  %4 = getelementptr inbounds nuw %struct._object, ptr %3, i32 0, i32 0
  %5 = getelementptr inbounds nuw %struct.anon, ptr %4, i32 0, i32 0
  %6 = load i32, ptr %5, align 8, !tbaa !35
  %7 = icmp slt i32 %6, 0
  %8 = zext i1 %7 to i32
  ret i32 %8
}

; Function Attrs: inlinehint nounwind uwtable
define internal ptr @_Py_NewRef(ptr noundef %0) #3 {
  %2 = alloca ptr, align 8
  store ptr %0, ptr %2, align 8, !tbaa !4
  %3 = load ptr, ptr %2, align 8, !tbaa !4
  call void @Py_INCREF(ptr noundef %3)
  %4 = load ptr, ptr %2, align 8, !tbaa !4
  ret ptr %4
}

; Function Attrs: inlinehint nounwind uwtable
define internal void @Py_XDECREF(ptr noundef %0) #3 {
  %2 = alloca ptr, align 8
  store ptr %0, ptr %2, align 8, !tbaa !4
  %3 = load ptr, ptr %2, align 8, !tbaa !4
  %4 = icmp ne ptr %3, null
  br i1 %4, label %5, label %7

5:                                                ; preds = %1
  %6 = load ptr, ptr %2, align 8, !tbaa !4
  call void @Py_DECREF(ptr noundef %6)
  br label %7

7:                                                ; preds = %5, %1
  ret void
}

; Function Attrs: alwaysinline nounwind uwtable
define internal void @Py_DECREF(ptr noundef %0) #6 {
  %2 = alloca ptr, align 8
  store ptr %0, ptr %2, align 8, !tbaa !4
  %3 = load ptr, ptr %2, align 8, !tbaa !4
  %4 = call i32 @_Py_IsImmortal(ptr noundef %3)
  %5 = icmp ne i32 %4, 0
  br i1 %5, label %6, label %7

6:                                                ; preds = %1
  br label %16

7:                                                ; preds = %1
  %8 = load ptr, ptr %2, align 8, !tbaa !4
  %9 = getelementptr inbounds nuw %struct._object, ptr %8, i32 0, i32 0
  %10 = getelementptr inbounds nuw %struct.anon, ptr %9, i32 0, i32 0
  %11 = load i32, ptr %10, align 8, !tbaa !35
  %12 = add i32 %11, -1
  store i32 %12, ptr %10, align 8, !tbaa !35
  %13 = icmp eq i32 %12, 0
  br i1 %13, label %14, label %16

14:                                               ; preds = %7
  %15 = load ptr, ptr %2, align 8, !tbaa !4
  call void @_Py_Dealloc(ptr noundef %15)
  br label %16

16:                                               ; preds = %6, %14, %7
  ret void
}

; Function Attrs: nounwind uwtable
define internal ptr @_symtable_symtable_impl(ptr noundef %0, ptr noundef %1, ptr noundef %2, ptr noundef %3) #0 {
  %5 = alloca ptr, align 8
  %6 = alloca ptr, align 8
  %7 = alloca ptr, align 8
  %8 = alloca ptr, align 8
  %9 = alloca ptr, align 8
  %10 = alloca ptr, align 8
  %11 = alloca ptr, align 8
  %12 = alloca i32, align 4
  %13 = alloca %struct.PyCompilerFlags, align 4
  %14 = alloca ptr, align 8
  %15 = alloca ptr, align 8
  %16 = alloca i32, align 4
  store ptr %0, ptr %6, align 8, !tbaa !4
  store ptr %1, ptr %7, align 8, !tbaa !4
  store ptr %2, ptr %8, align 8, !tbaa !4
  store ptr %3, ptr %9, align 8, !tbaa !13
  call void @llvm.lifetime.start.p0(i64 8, ptr %10) #7
  call void @llvm.lifetime.start.p0(i64 8, ptr %11) #7
  call void @llvm.lifetime.start.p0(i64 4, ptr %12) #7
  call void @llvm.lifetime.start.p0(i64 8, ptr %13) #7
  call void @llvm.memcpy.p0.p0.i64(ptr align 4 %13, ptr align 4 @__const._symtable_symtable_impl.cf, i64 8, i1 false)
  call void @llvm.lifetime.start.p0(i64 8, ptr %14) #7
  store ptr null, ptr %14, align 8, !tbaa !4
  %17 = getelementptr inbounds nuw %struct.PyCompilerFlags, ptr %13, i32 0, i32 0
  store i32 256, ptr %17, align 4, !tbaa !27
  call void @llvm.lifetime.start.p0(i64 8, ptr %15) #7
  %18 = load ptr, ptr %7, align 8, !tbaa !4
  %19 = call ptr @_Py_SourceAsString(ptr noundef %18, ptr noundef @.str.1, ptr noundef @.str.6, ptr noundef %13, ptr noundef %14)
  store ptr %19, ptr %15, align 8, !tbaa !13
  %20 = load ptr, ptr %15, align 8, !tbaa !13
  %21 = icmp eq ptr %20, null
  br i1 %21, label %22, label %23

22:                                               ; preds = %4
  store ptr null, ptr %5, align 8
  store i32 1, ptr %16, align 4
  br label %61

23:                                               ; preds = %4
  %24 = load ptr, ptr %9, align 8, !tbaa !13
  %25 = call i32 @strcmp(ptr noundef %24, ptr noundef @.str.7) #8
  %26 = icmp eq i32 %25, 0
  br i1 %26, label %27, label %28

27:                                               ; preds = %23
  store i32 257, ptr %12, align 4, !tbaa !29
  br label %44

28:                                               ; preds = %23
  %29 = load ptr, ptr %9, align 8, !tbaa !13
  %30 = call i32 @strcmp(ptr noundef %29, ptr noundef @.str.8) #8
  %31 = icmp eq i32 %30, 0
  br i1 %31, label %32, label %33

32:                                               ; preds = %28
  store i32 258, ptr %12, align 4, !tbaa !29
  br label %43

33:                                               ; preds = %28
  %34 = load ptr, ptr %9, align 8, !tbaa !13
  %35 = call i32 @strcmp(ptr noundef %34, ptr noundef @.str.9) #8
  %36 = icmp eq i32 %35, 0
  br i1 %36, label %37, label %38

37:                                               ; preds = %33
  store i32 256, ptr %12, align 4, !tbaa !29
  br label %42

38:                                               ; preds = %33
  %39 = load ptr, ptr @PyExc_ValueError, align 8, !tbaa !4
  call void @PyErr_SetString(ptr noundef %39, ptr noundef @.str.10)
  %40 = load ptr, ptr %8, align 8, !tbaa !4
  call void @Py_DECREF(ptr noundef %40)
  %41 = load ptr, ptr %14, align 8, !tbaa !4
  call void @Py_XDECREF(ptr noundef %41)
  store ptr null, ptr %5, align 8
  store i32 1, ptr %16, align 4
  br label %61

42:                                               ; preds = %37
  br label %43

43:                                               ; preds = %42, %32
  br label %44

44:                                               ; preds = %43, %27
  %45 = load ptr, ptr %15, align 8, !tbaa !13
  %46 = load ptr, ptr %8, align 8, !tbaa !4
  %47 = load i32, ptr %12, align 4, !tbaa !29
  %48 = call ptr @_Py_SymtableStringObjectFlags(ptr noundef %45, ptr noundef %46, i32 noundef %47, ptr noundef %13)
  store ptr %48, ptr %10, align 8, !tbaa !30
  %49 = load ptr, ptr %8, align 8, !tbaa !4
  call void @Py_DECREF(ptr noundef %49)
  %50 = load ptr, ptr %14, align 8, !tbaa !4
  call void @Py_XDECREF(ptr noundef %50)
  %51 = load ptr, ptr %10, align 8, !tbaa !30
  %52 = icmp eq ptr %51, null
  br i1 %52, label %53, label %54

53:                                               ; preds = %44
  store ptr null, ptr %5, align 8
  store i32 1, ptr %16, align 4
  br label %61

54:                                               ; preds = %44
  %55 = load ptr, ptr %10, align 8, !tbaa !30
  %56 = getelementptr inbounds nuw %struct.symtable, ptr %55, i32 0, i32 2
  %57 = load ptr, ptr %56, align 8, !tbaa !32
  %58 = call ptr @_Py_NewRef(ptr noundef %57)
  store ptr %58, ptr %11, align 8, !tbaa !4
  %59 = load ptr, ptr %10, align 8, !tbaa !30
  call void @_PySymtable_Free(ptr noundef %59)
  %60 = load ptr, ptr %11, align 8, !tbaa !4
  store ptr %60, ptr %5, align 8
  store i32 1, ptr %16, align 4
  br label %61

61:                                               ; preds = %54, %53, %38, %22
  call void @llvm.lifetime.end.p0(i64 8, ptr %15) #7
  call void @llvm.lifetime.end.p0(i64 8, ptr %14) #7
  call void @llvm.lifetime.end.p0(i64 8, ptr %13) #7
  call void @llvm.lifetime.end.p0(i64 4, ptr %12) #7
  call void @llvm.lifetime.end.p0(i64 8, ptr %11) #7
  call void @llvm.lifetime.end.p0(i64 8, ptr %10) #7
  %62 = load ptr, ptr %5, align 8
  ret ptr %62
}

; Function Attrs: inlinehint nounwind uwtable
define internal i32 @PyType_HasFeature(ptr noundef %0, i64 noundef %1) #3 {
  %3 = alloca ptr, align 8
  %4 = alloca i64, align 8
  %5 = alloca i64, align 8
  store ptr %0, ptr %3, align 8, !tbaa !15
  store i64 %1, ptr %4, align 8, !tbaa !11
  call void @llvm.lifetime.start.p0(i64 8, ptr %5) #7
  %6 = load ptr, ptr %3, align 8, !tbaa !15
  %7 = getelementptr inbounds nuw %struct._typeobject, ptr %6, i32 0, i32 19
  %8 = load i64, ptr %7, align 8, !tbaa !17
  store i64 %8, ptr %5, align 8, !tbaa !11
  %9 = load i64, ptr %5, align 8, !tbaa !11
  %10 = load i64, ptr %4, align 8, !tbaa !11
  %11 = and i64 %9, %10
  %12 = icmp ne i64 %11, 0
  %13 = zext i1 %12 to i32
  call void @llvm.lifetime.end.p0(i64 8, ptr %5) #7
  ret i32 %13
}

; Function Attrs: inlinehint nounwind uwtable
define internal ptr @_Py_TYPE(ptr noundef %0) #3 {
  %2 = alloca ptr, align 8
  store ptr %0, ptr %2, align 8, !tbaa !4
  %3 = load ptr, ptr %2, align 8, !tbaa !4
  %4 = getelementptr inbounds nuw %struct._object, ptr %3, i32 0, i32 1
  %5 = load ptr, ptr %4, align 8, !tbaa !26
  ret ptr %5
}

; Function Attrs: nounwind uwtable
define internal ptr @_symtable_symtable(ptr noundef %0, ptr noundef %1, i64 noundef %2) #0 {
  %4 = alloca ptr, align 8
  %5 = alloca ptr, align 8
  %6 = alloca i64, align 8
  %7 = alloca ptr, align 8
  %8 = alloca ptr, align 8
  %9 = alloca ptr, align 8
  %10 = alloca ptr, align 8
  %11 = alloca i64, align 8
  store ptr %0, ptr %4, align 8, !tbaa !4
  store ptr %1, ptr %5, align 8, !tbaa !9
  store i64 %2, ptr %6, align 8, !tbaa !11
  call void @llvm.lifetime.start.p0(i64 8, ptr %7) #7
  store ptr null, ptr %7, align 8, !tbaa !4
  call void @llvm.lifetime.start.p0(i64 8, ptr %8) #7
  call void @llvm.lifetime.start.p0(i64 8, ptr %9) #7
  call void @llvm.lifetime.start.p0(i64 8, ptr %10) #7
  %12 = load i64, ptr %6, align 8, !tbaa !11
  %13 = icmp sle i64 3, %12
  br i1 %13, label %14, label %17

14:                                               ; preds = %3
  %15 = load i64, ptr %6, align 8, !tbaa !11
  %16 = icmp sle i64 %15, 3
  br i1 %16, label %22, label %17

17:                                               ; preds = %14, %3
  %18 = load i64, ptr %6, align 8, !tbaa !11
  %19 = call i32 @_PyArg_CheckPositional(ptr noundef @.str.1, i64 noundef %18, i64 noundef 3, i64 noundef 3)
  %20 = icmp ne i32 %19, 0
  br i1 %20, label %22, label %21

21:                                               ; preds = %17
  br label %64

22:                                               ; preds = %17, %14
  %23 = load ptr, ptr %5, align 8, !tbaa !9
  %24 = getelementptr ptr, ptr %23, i64 0
  %25 = load ptr, ptr %24, align 8, !tbaa !4
  store ptr %25, ptr %8, align 8, !tbaa !4
  %26 = load ptr, ptr %5, align 8, !tbaa !9
  %27 = getelementptr ptr, ptr %26, i64 1
  %28 = load ptr, ptr %27, align 8, !tbaa !4
  %29 = call i32 @PyUnicode_FSDecoder(ptr noundef %28, ptr noundef %9)
  %30 = icmp ne i32 %29, 0
  br i1 %30, label %32, label %31

31:                                               ; preds = %22
  br label %64

32:                                               ; preds = %22
  %33 = load ptr, ptr %5, align 8, !tbaa !9
  %34 = getelementptr ptr, ptr %33, i64 2
  %35 = load ptr, ptr %34, align 8, !tbaa !4
  %36 = call ptr @_Py_TYPE(ptr noundef %35)
  %37 = call i32 @PyType_HasFeature(ptr noundef %36, i64 noundef 268435456)
  %38 = icmp ne i32 %37, 0
  br i1 %38, label %43, label %39

39:                                               ; preds = %32
  %40 = load ptr, ptr %5, align 8, !tbaa !9
  %41 = getelementptr ptr, ptr %40, i64 2
  %42 = load ptr, ptr %41, align 8, !tbaa !4
  call void @_PyArg_BadArgument(ptr noundef @.str.1, ptr noundef @.str.3, ptr noundef @.str.4, ptr noundef %42)
  br label %64

43:                                               ; preds = %32
  %44 = load ptr, ptr %5, align 8, !tbaa !9
  %45 = getelementptr ptr, ptr %44, i64 2
  %46 = load ptr, ptr %45, align 8, !tbaa !4
  %47 = call ptr @PyUnicode_AsUTF8AndSize(ptr noundef %46, ptr noundef %11)
  store ptr %47, ptr %10, align 8, !tbaa !13
  %48 = load ptr, ptr %10, align 8, !tbaa !13
  %49 = icmp eq ptr %48, null
  br i1 %49, label %50, label %51

50:                                               ; preds = %43
  br label %64

51:                                               ; preds = %43
  %52 = load ptr, ptr %10, align 8, !tbaa !13
  %53 = call i64 @strlen(ptr noundef %52) #8
  %54 = load i64, ptr %11, align 8, !tbaa !11
  %55 = icmp ne i64 %53, %54
  br i1 %55, label %56, label %58

56:                                               ; preds = %51
  %57 = load ptr, ptr @PyExc_ValueError, align 8, !tbaa !4
  call void @PyErr_SetString(ptr noundef %57, ptr noundef @.str.5)
  br label %64

58:                                               ; preds = %51
  %59 = load ptr, ptr %4, align 8, !tbaa !4
  %60 = load ptr, ptr %8, align 8, !tbaa !4
  %61 = load ptr, ptr %9, align 8, !tbaa !4
  %62 = load ptr, ptr %10, align 8, !tbaa !13
  %63 = call ptr @_symtable_symtable_impl(ptr noundef %59, ptr noundef %60, ptr noundef %61, ptr noundef %62)
  store ptr %63, ptr %7, align 8, !tbaa !4
  br label %64

64:                                               ; preds = %58, %56, %50, %39, %31, %21
  %65 = load ptr, ptr %7, align 8, !tbaa !4
  call void @llvm.lifetime.end.p0(i64 8, ptr %10) #7
  call void @llvm.lifetime.end.p0(i64 8, ptr %9) #7
  call void @llvm.lifetime.end.p0(i64 8, ptr %8) #7
  call void @llvm.lifetime.end.p0(i64 8, ptr %7) #7
  ret ptr %65
}