; Function Attrs: nounwind uwtable
define internal noundef ptr @_symtable_symtable(ptr readnone captures(none) %0, ptr noundef readonly captures(none) %1, i64 noundef %2) #0 {
  %4 = alloca %struct.PyCompilerFlags, align 8
  %5 = alloca ptr, align 8
  %6 = alloca ptr, align 8
  %7 = alloca i64, align 8
  call void @llvm.lifetime.start.p0(i64 8, ptr nonnull %6) #4
  %or.cond = icmp eq i64 %2, 3
  br i1 %or.cond, label %10, label %8

8:                                                ; preds = %3
  %9 = tail call i32 @_PyArg_CheckPositional(ptr noundef nonnull @.str.1, i64 noundef %2, i64 noundef 3, i64 noundef 3) #4
  %.not = icmp eq i32 %9, 0
  br i1 %.not, label %79, label %10

10:                                               ; preds = %3, %8
  %11 = load ptr, ptr %1, align 8, !tbaa !4
  %12 = getelementptr i8, ptr %1, i64 8
  %13 = load ptr, ptr %12, align 8, !tbaa !4
  %14 = call i32 @PyUnicode_FSDecoder(ptr noundef %13, ptr noundef nonnull %6) #4
  %.not15 = icmp eq i32 %14, 0
  br i1 %.not15, label %79, label %15

15:                                               ; preds = %10
  %16 = getelementptr i8, ptr %1, i64 16
  %17 = load ptr, ptr %16, align 8, !tbaa !4
  %18 = getelementptr i8, ptr %17, i64 8
  %.val = load ptr, ptr %18, align 8, !tbaa !9
  %19 = getelementptr i8, ptr %.val, i64 168
  %.val18 = load i64, ptr %19, align 8, !tbaa !12
  %20 = and i64 %.val18, 268435456
  %.not16 = icmp eq i64 %20, 0
  br i1 %.not16, label %21, label %22

21:                                               ; preds = %15
  call void @_PyArg_BadArgument(ptr noundef nonnull @.str.1, ptr noundef nonnull @.str.3, ptr noundef nonnull @.str.4, ptr noundef nonnull %17) #4
  br label %79

22:                                               ; preds = %15
  %23 = call ptr @PyUnicode_AsUTF8AndSize(ptr noundef nonnull %17, ptr noundef nonnull %7) #4
  %24 = icmp eq ptr %23, null
  br i1 %24, label %79, label %25

25:                                               ; preds = %22
  %26 = call i64 @strlen(ptr noundef nonnull dereferenceable(1) %23) #5
  %27 = load i64, ptr %7, align 8, !tbaa !22
  %.not17 = icmp eq i64 %26, %27
  br i1 %.not17, label %30, label %28

28:                                               ; preds = %25
  %29 = load ptr, ptr @PyExc_ValueError, align 8, !tbaa !4
  call void @PyErr_SetString(ptr noundef %29, ptr noundef nonnull @.str.5) #4
  br label %79

30:                                               ; preds = %25
  %31 = load ptr, ptr %6, align 8, !tbaa !4
  call void @llvm.lifetime.start.p0(i64 8, ptr nonnull %4) #4
  store i64 60129542400, ptr %4, align 8
  call void @llvm.lifetime.start.p0(i64 8, ptr nonnull %5) #4
  store ptr null, ptr %5, align 8, !tbaa !4
  %32 = call ptr @_Py_SourceAsString(ptr noundef %11, ptr noundef nonnull @.str.1, ptr noundef nonnull @.str.6, ptr noundef nonnull %4, ptr noundef nonnull %5) #4
  %33 = icmp eq ptr %32, null
  br i1 %33, label %_symtable_symtable_impl.exit, label %34

34:                                               ; preds = %30
  %35 = call i32 @strcmp(ptr noundef nonnull readonly dereferenceable(1) %23, ptr noundef nonnull dereferenceable(5) @.str.7) #5
  %36 = icmp eq i32 %35, 0
  br i1 %36, label %57, label %37

37:                                               ; preds = %34
  %38 = call i32 @strcmp(ptr noundef nonnull readonly dereferenceable(1) %23, ptr noundef nonnull dereferenceable(5) @.str.8) #5
  %39 = icmp eq i32 %38, 0
  br i1 %39, label %57, label %40

40:                                               ; preds = %37
  %41 = call i32 @strcmp(ptr noundef nonnull readonly dereferenceable(1) %23, ptr noundef nonnull dereferenceable(7) @.str.9) #5
  %42 = icmp eq i32 %41, 0
  br i1 %42, label %57, label %43

43:                                               ; preds = %40
  %44 = load ptr, ptr @PyExc_ValueError, align 8, !tbaa !4
  call void @PyErr_SetString(ptr noundef %44, ptr noundef nonnull @.str.10) #4
  %45 = load i32, ptr %31, align 8, !tbaa !23
  %.not.i.i = icmp sgt i32 %45, -1
  br i1 %.not.i.i, label %46, label %Py_DECREF.exit.i

46:                                               ; preds = %43
  %47 = add nsw i32 %45, -1
  store i32 %47, ptr %31, align 8, !tbaa !23
  %48 = icmp eq i32 %47, 0
  br i1 %48, label %49, label %Py_DECREF.exit.i

49:                                               ; preds = %46
  call void @_Py_Dealloc(ptr noundef nonnull %31) #4
  br label %Py_DECREF.exit.i

Py_DECREF.exit.i:                                 ; preds = %49, %46, %43
  %50 = load ptr, ptr %5, align 8, !tbaa !4
  %.not.i20.i = icmp eq ptr %50, null
  br i1 %.not.i20.i, label %_symtable_symtable_impl.exit, label %51

51:                                               ; preds = %Py_DECREF.exit.i
  %52 = load i32, ptr %50, align 8, !tbaa !23
  %.not.i.i.i = icmp sgt i32 %52, -1
  br i1 %.not.i.i.i, label %53, label %_symtable_symtable_impl.exit

53:                                               ; preds = %51
  %54 = add nsw i32 %52, -1
  store i32 %54, ptr %50, align 8, !tbaa !23
  %55 = icmp eq i32 %54, 0
  br i1 %55, label %56, label %_symtable_symtable_impl.exit

56:                                               ; preds = %53
  call void @_Py_Dealloc(ptr noundef nonnull %50) #4
  br label %_symtable_symtable_impl.exit

57:                                               ; preds = %40, %37, %34
  %.014.i = phi i32 [ 257, %34 ], [ 258, %37 ], [ 256, %40 ]
  %58 = call ptr @_Py_SymtableStringObjectFlags(ptr noundef nonnull %32, ptr noundef %31, i32 noundef %.014.i, ptr noundef nonnull %4) #4
  %59 = load i32, ptr %31, align 8, !tbaa !23
  %.not.i17.i = icmp sgt i32 %59, -1
  br i1 %.not.i17.i, label %60, label %Py_DECREF.exit18.i

60:                                               ; preds = %57
  %61 = add nsw i32 %59, -1
  store i32 %61, ptr %31, align 8, !tbaa !23
  %62 = icmp eq i32 %61, 0
  br i1 %62, label %63, label %Py_DECREF.exit18.i

63:                                               ; preds = %60
  call void @_Py_Dealloc(ptr noundef nonnull %31) #4
  br label %Py_DECREF.exit18.i

Py_DECREF.exit18.i:                               ; preds = %63, %60, %57
  %64 = load ptr, ptr %5, align 8, !tbaa !4
  %.not.i21.i = icmp eq ptr %64, null
  br i1 %.not.i21.i, label %Py_XDECREF.exit23.i, label %65

65:                                               ; preds = %Py_DECREF.exit18.i
  %66 = load i32, ptr %64, align 8, !tbaa !23
  %.not.i.i22.i = icmp sgt i32 %66, -1
  br i1 %.not.i.i22.i, label %67, label %Py_XDECREF.exit23.i

67:                                               ; preds = %65
  %68 = add nsw i32 %66, -1
  store i32 %68, ptr %64, align 8, !tbaa !23
  %69 = icmp eq i32 %68, 0
  br i1 %69, label %70, label %Py_XDECREF.exit23.i

70:                                               ; preds = %67
  call void @_Py_Dealloc(ptr noundef nonnull %64) #4
  br label %Py_XDECREF.exit23.i

Py_XDECREF.exit23.i:                              ; preds = %70, %67, %65, %Py_DECREF.exit18.i
  %71 = icmp eq ptr %58, null
  br i1 %71, label %_symtable_symtable_impl.exit, label %72

72:                                               ; preds = %Py_XDECREF.exit23.i
  %73 = getelementptr inbounds nuw i8, ptr %58, i64 16
  %74 = load ptr, ptr %73, align 8, !tbaa !24
  %75 = load i32, ptr %74, align 8, !tbaa !23
  %76 = icmp slt i32 %75, 0
  br i1 %76, label %_Py_NewRef.exit.i, label %77

77:                                               ; preds = %72
  %78 = add nuw i32 %75, 1
  store i32 %78, ptr %74, align 8, !tbaa !23
  br label %_Py_NewRef.exit.i

_Py_NewRef.exit.i:                                ; preds = %77, %72
  call void @_PySymtable_Free(ptr noundef nonnull %58) #4
  br label %_symtable_symtable_impl.exit

_symtable_symtable_impl.exit:                     ; preds = %30, %Py_DECREF.exit.i, %51, %53, %56, %Py_XDECREF.exit23.i, %_Py_NewRef.exit.i
  %.0.i = phi ptr [ %74, %_Py_NewRef.exit.i ], [ null, %30 ], [ null, %Py_XDECREF.exit23.i ], [ null, %Py_DECREF.exit.i ], [ null, %51 ], [ null, %53 ], [ null, %56 ]
  call void @llvm.lifetime.end.p0(i64 8, ptr nonnull %5) #4
  call void @llvm.lifetime.end.p0(i64 8, ptr nonnull %4) #4
  br label %79

79:                                               ; preds = %22, %10, %8, %_symtable_symtable_impl.exit, %28, %21
  %.0 = phi ptr [ null, %22 ], [ null, %28 ], [ %.0.i, %_symtable_symtable_impl.exit ], [ null, %21 ], [ null, %10 ], [ null, %8 ]
  call void @llvm.lifetime.end.p0(i64 8, ptr nonnull %6) #4
  ret ptr %.0
}